; Function Attrs: mustprogress uwtable
define internal void @"_ZN4LuauL8fnVisitVIZNS_16toStringDetailedEPKNS_4TypeERNS_15ToStringOptionsEE3$_0KNS_8LazyTypeEEEvRT_PNSt11conditionalIXsr3stdE10is_const_vIT0_EEKvvE4typeE"(ptr noundef nonnull readonly align 8 captures(none) dereferenceable(16) %0, ptr noundef readonly captures(none) %1) #6 personality ptr @__gxx_personality_v0 {
  %3 = load ptr, ptr %0, align 8, !tbaa !646
  %4 = getelementptr inbounds nuw i8, ptr %1, i64 32
  %5 = load atomic i64, ptr %4 seq_cst, align 8
  %.not.i.i = icmp eq i64 %5, 0
  br i1 %.not.i.i, label %7, label %6

6:                                                ; preds = %2
  %.0.i.i.i.i = inttoptr i64 %5 to ptr
  tail call void @_ZN4Luau15TypeStringifier9stringifyEPKNS_4TypeE(ptr noundef nonnull align 8 dereferenceable(8) %3, ptr noundef nonnull %.0.i.i.i.i)
  br label %"_ZZN4Luau16toStringDetailedEPKNS_4TypeERNS_15ToStringOptionsEENK3$_0clIRKNS_8LazyTypeEEEDaOT_.exit"

7:                                                ; preds = %2
  %8 = load ptr, ptr %3, align 8, !tbaa !28
  %9 = getelementptr inbounds nuw i8, ptr %8, i64 8
  %10 = load ptr, ptr %9, align 8, !tbaa !86
  %11 = getelementptr inbounds nuw i8, ptr %10, i64 32
  store i8 1, ptr %11, align 8, !tbaa !149
  %12 = load ptr, ptr %8, align 8, !tbaa !39
  %13 = getelementptr inbounds nuw i8, ptr %12, i64 16
  %14 = load i64, ptr %13, align 8, !tbaa !64
  %.not.i.i.i = icmp ne i64 %14, 0
  %.phi.trans.insert2.i.i.i = getelementptr inbounds nuw i8, ptr %10, i64 8
  %.pre3.i.i.i = load i64, ptr %.phi.trans.insert2.i.i.i, align 8, !tbaa !23
  %15 = icmp ugt i64 %.pre3.i.i.i, %14
  %or.cond.i.i.i = select i1 %.not.i.i.i, i1 %15, i1 false
  br i1 %or.cond.i.i.i, label %"_ZZN4Luau16toStringDetailedEPKNS_4TypeERNS_15ToStringOptionsEENK3$_0clIRKNS_8LazyTypeEEEDaOT_.exit", label %._crit_edge.i.i.i

._crit_edge.i.i.i:                                ; preds = %7
  %16 = add i64 %.pre3.i.i.i, -4611686018427387899
  %17 = icmp ult i64 %16, 5
  br i1 %17, label %18, label %_ZNSt7__cxx1112basic_stringIcSt11char_traitsIcESaIcEEpLEPKc.exit.i.i.i

18:                                               ; preds = %._crit_edge.i.i.i
  tail call void @_ZSt20__throw_length_errorPKc(ptr noundef nonnull @.str.183) #31
  unreachable

_ZNSt7__cxx1112basic_stringIcSt11char_traitsIcESaIcEEpLEPKc.exit.i.i.i: ; preds = %._crit_edge.i.i.i
  %19 = tail call noundef nonnull align 8 dereferenceable(32) ptr @_ZNSt7__cxx1112basic_stringIcSt11char_traitsIcESaIcEE9_M_appendEPKcm(ptr noundef nonnull align 8 dereferenceable(32) %10, ptr noundef nonnull @.str.151, i64 noundef 5)
  br label %"_ZZN4Luau16toStringDetailedEPKNS_4TypeERNS_15ToStringOptionsEENK3$_0clIRKNS_8LazyTypeEEEDaOT_.exit"

"_ZZN4Luau16toStringDetailedEPKNS_4TypeERNS_15ToStringOptionsEENK3$_0clIRKNS_8LazyTypeEEEDaOT_.exit": ; preds = %6, %7, %_ZNSt7__cxx1112basic_stringIcSt11char_traitsIcESaIcEEpLEPKc.exit.i.i.i
  ret void
}